target datalayout = "e-m:e-p270:32:32-p271:32:32-p272:64:64-i64:64-i128:128-f80:128-n8:16:32:64-S128"
target triple = "x86_64-pc-linux-gnu"

%struct.strbuf = type { i64, i64, ptr }
%struct.object_id = type { [32 x i8], i32 }
%struct.image = type { %struct.strbuf, ptr, i64, i64 }
%struct.apply_state = type { ptr, %struct.lock_file, i32, i32, i32, i32, i32, i32, i32, i32, i32, i32, i32, i32, i32, i32, i32, i32, i32, ptr, ptr, i32, i32, ptr, ptr, i32, %struct.strbuf, i32, i32, i32, %struct.string_list, i32, i32, %struct.strset, %struct.strset, i32, i32, %struct.string_list, ptr, ptr, i32, i32, ptr, i32, i32, i32 }
%struct.lock_file = type { ptr }
%struct.strset = type { %struct.strmap }
%struct.strmap = type { %struct.hashmap, ptr, i8 }
%struct.hashmap = type { ptr, ptr, ptr, i32, i32, i32, i32, i8 }
%struct.string_list = type { ptr, i64, i64, i8, ptr }
%struct.patch = type { ptr, ptr, ptr, i32, i32, i32, i32, i32, i32, i32, i32, i32, i32, i16, ptr, ptr, i64, [65 x i8], [65 x i8], ptr, [3 x %struct.object_id] }
%struct.fragment = type { i64, i64, i64, i64, i64, i64, ptr, i8, i32, i32, ptr }

@.str.23 = private unnamed_addr constant [1 x i8] zeroinitializer, align 1
@git_gettext_enabled = external global i32, align 4
@.str.211 = private unnamed_addr constant [35 x i8] c"missing binary patch data for '%s'\00", align 1
@.str.212 = private unnamed_addr constant [69 x i8] c"cannot reverse-apply a binary patch without the reverse hunk to '%s'\00", align 1
@__const.image_init.empty = private unnamed_addr constant %struct.image { %struct.strbuf { i64 0, i64 0, ptr @strbuf_slopbuf }, ptr null, i64 0, i64 0 }, align 8

; Function Attrs: nounwind uwtable
define internal void @image_init(ptr noundef %0) #0 {
  %2 = alloca ptr, align 8
  %3 = alloca %struct.image, align 8
  store ptr %0, ptr %2, align 8, !tbaa !259
  call void @llvm.lifetime.start.p0(i64 48, ptr %3) #12
  call void @llvm.memcpy.p0.p0.i64(ptr align 8 %3, ptr align 8 @__const.image_init.empty, i64 48, i1 false)
  %4 = load ptr, ptr %2, align 8, !tbaa !259
  call void @llvm.memcpy.p0.p0.i64(ptr align 8 %4, ptr align 8 %3, i64 48, i1 false)
  call void @llvm.lifetime.end.p0(i64 48, ptr %3) #12
  ret void
}

; Function Attrs: nounwind uwtable
define internal void @image_clear(ptr noundef %0) #0 {
  %2 = alloca ptr, align 8
  store ptr %0, ptr %2, align 8, !tbaa !259
  %3 = load ptr, ptr %2, align 8, !tbaa !259
  %4 = getelementptr inbounds nuw %struct.image, ptr %3, i32 0, i32 0
  call void @strbuf_release(ptr noundef %4)
  %5 = load ptr, ptr %2, align 8, !tbaa !259
  %6 = getelementptr inbounds nuw %struct.image, ptr %5, i32 0, i32 1
  %7 = load ptr, ptr %6, align 8, !tbaa !247
  call void @free(ptr noundef %7) #12
  %8 = load ptr, ptr %2, align 8, !tbaa !259
  call void @image_init(ptr noundef %8)
  ret void
}

; Function Attrs: inlinehint nounwind uwtable
define internal i32 @const_error() #3 {
  ret i32 -1
}

; Function Attrs: inlinehint nounwind uwtable
define internal ptr @_(ptr noundef %0) #3 {
  %2 = alloca ptr, align 8
  %3 = alloca ptr, align 8
  store ptr %0, ptr %3, align 8, !tbaa !11
  %4 = load ptr, ptr %3, align 8, !tbaa !11
  %5 = load i8, ptr %4, align 1, !tbaa !57
  %6 = icmp ne i8 %5, 0
  br i1 %6, label %8, label %7

7:                                                ; preds = %1
  store ptr @.str.23, ptr %2, align 8
  br label %16

8:                                                ; preds = %1
  %9 = load i32, ptr @git_gettext_enabled, align 4, !tbaa !39
  %10 = icmp ne i32 %9, 0
  br i1 %10, label %13, label %11

11:                                               ; preds = %8
  %12 = load ptr, ptr %3, align 8, !tbaa !11
  store ptr %12, ptr %2, align 8
  br label %16

13:                                               ; preds = %8
  %14 = load ptr, ptr %3, align 8, !tbaa !11
  %15 = call ptr @dcgettext(ptr noundef null, ptr noundef %14, i32 noundef 5) #12
  store ptr %15, ptr %2, align 8
  br label %16

16:                                               ; preds = %13, %11, %7
  %17 = load ptr, ptr %2, align 8
  ret ptr %17
}

; Function Attrs: nounwind uwtable
define internal i32 @apply_binary_fragment(ptr noundef %0, ptr noundef %1, ptr noundef %2) #0 {
  %4 = alloca i32, align 4
  %5 = alloca ptr, align 8
  %6 = alloca ptr, align 8
  %7 = alloca ptr, align 8
  %8 = alloca ptr, align 8
  %9 = alloca i64, align 8
  %10 = alloca ptr, align 8
  %11 = alloca i32, align 4
  store ptr %0, ptr %5, align 8, !tbaa !4
  store ptr %1, ptr %6, align 8, !tbaa !259
  store ptr %2, ptr %7, align 8, !tbaa !60
  call void @llvm.lifetime.start.p0(i64 8, ptr %8) #12
  %12 = load ptr, ptr %7, align 8, !tbaa !60
  %13 = getelementptr inbounds nuw %struct.patch, ptr %12, i32 0, i32 14
  %14 = load ptr, ptr %13, align 8, !tbaa !62
  store ptr %14, ptr %8, align 8, !tbaa !69
  call void @llvm.lifetime.start.p0(i64 8, ptr %9) #12
  call void @llvm.lifetime.start.p0(i64 8, ptr %10) #12
  %15 = load ptr, ptr %8, align 8, !tbaa !69
  %16 = icmp ne ptr %15, null
  br i1 %16, label %35, label %17

17:                                               ; preds = %3
  %18 = call ptr @_(ptr noundef @.str.211)
  %19 = load ptr, ptr %7, align 8, !tbaa !60
  %20 = getelementptr inbounds nuw %struct.patch, ptr %19, i32 0, i32 0
  %21 = load ptr, ptr %20, align 8, !tbaa !67
  %22 = icmp ne ptr %21, null
  br i1 %22, label %23, label %27

23:                                               ; preds = %17
  %24 = load ptr, ptr %7, align 8, !tbaa !60
  %25 = getelementptr inbounds nuw %struct.patch, ptr %24, i32 0, i32 0
  %26 = load ptr, ptr %25, align 8, !tbaa !67
  br label %31

27:                                               ; preds = %17
  %28 = load ptr, ptr %7, align 8, !tbaa !60
  %29 = getelementptr inbounds nuw %struct.patch, ptr %28, i32 0, i32 1
  %30 = load ptr, ptr %29, align 8, !tbaa !66
  br label %31

31:                                               ; preds = %27, %23
  %32 = phi ptr [ %26, %23 ], [ %30, %27 ]
  %33 = call i32 (ptr, ...) @error(ptr noundef %18, ptr noundef %32)
  %34 = call i32 @const_error()
  store i32 %34, ptr %4, align 4
  store i32 1, ptr %11, align 4
  br label %111

35:                                               ; preds = %3
  %36 = load ptr, ptr %5, align 8, !tbaa !4
  %37 = getelementptr inbounds nuw %struct.apply_state, ptr %36, i32 0, i32 12
  %38 = load i32, ptr %37, align 8, !tbaa !129
  %39 = icmp ne i32 %38, 0
  br i1 %39, label %40, label %67

40:                                               ; preds = %35
  %41 = load ptr, ptr %8, align 8, !tbaa !69
  %42 = getelementptr inbounds nuw %struct.fragment, ptr %41, i32 0, i32 10
  %43 = load ptr, ptr %42, align 8, !tbaa !70
  %44 = icmp ne ptr %43, null
  br i1 %44, label %63, label %45

45:                                               ; preds = %40
  %46 = call ptr @_(ptr noundef @.str.212)
  %47 = load ptr, ptr %7, align 8, !tbaa !60
  %48 = getelementptr inbounds nuw %struct.patch, ptr %47, i32 0, i32 0
  %49 = load ptr, ptr %48, align 8, !tbaa !67
  %50 = icmp ne ptr %49, null
  br i1 %50, label %51, label %55

51:                                               ; preds = %45
  %52 = load ptr, ptr %7, align 8, !tbaa !60
  %53 = getelementptr inbounds nuw %struct.patch, ptr %52, i32 0, i32 0
  %54 = load ptr, ptr %53, align 8, !tbaa !67
  br label %59

55:                                               ; preds = %45
  %56 = load ptr, ptr %7, align 8, !tbaa !60
  %57 = getelementptr inbounds nuw %struct.patch, ptr %56, i32 0, i32 1
  %58 = load ptr, ptr %57, align 8, !tbaa !66
  br label %59

59:                                               ; preds = %55, %51
  %60 = phi ptr [ %54, %51 ], [ %58, %55 ]
  %61 = call i32 (ptr, ...) @error(ptr noundef %46, ptr noundef %60)
  %62 = call i32 @const_error()
  store i32 %62, ptr %4, align 4
  store i32 1, ptr %11, align 4
  br label %111

63:                                               ; preds = %40
  %64 = load ptr, ptr %8, align 8, !tbaa !69
  %65 = getelementptr inbounds nuw %struct.fragment, ptr %64, i32 0, i32 10
  %66 = load ptr, ptr %65, align 8, !tbaa !70
  store ptr %66, ptr %8, align 8, !tbaa !69
  br label %67

67:                                               ; preds = %63, %35
  %68 = load ptr, ptr %8, align 8, !tbaa !69
  %69 = getelementptr inbounds nuw %struct.fragment, ptr %68, i32 0, i32 0
  %70 = load i64, ptr %69, align 8, !tbaa !215
  switch i64 %70, label %110 [
    i64 1, label %71
    i64 2, label %99
  ]

71:                                               ; preds = %67
  %72 = load ptr, ptr %6, align 8, !tbaa !259
  %73 = getelementptr inbounds nuw %struct.image, ptr %72, i32 0, i32 0
  %74 = getelementptr inbounds nuw %struct.strbuf, ptr %73, i32 0, i32 2
  %75 = load ptr, ptr %74, align 8, !tbaa !261
  %76 = load ptr, ptr %6, align 8, !tbaa !259
  %77 = getelementptr inbounds nuw %struct.image, ptr %76, i32 0, i32 0
  %78 = getelementptr inbounds nuw %struct.strbuf, ptr %77, i32 0, i32 1
  %79 = load i64, ptr %78, align 8, !tbaa !262
  %80 = load ptr, ptr %8, align 8, !tbaa !69
  %81 = getelementptr inbounds nuw %struct.fragment, ptr %80, i32 0, i32 6
  %82 = load ptr, ptr %81, align 8, !tbaa !72
  %83 = load ptr, ptr %8, align 8, !tbaa !69
  %84 = getelementptr inbounds nuw %struct.fragment, ptr %83, i32 0, i32 8
  %85 = load i32, ptr %84, align 4, !tbaa !212
  %86 = sext i32 %85 to i64
  %87 = call ptr @patch_delta(ptr noundef %75, i64 noundef %79, ptr noundef %82, i64 noundef %86, ptr noundef %9)
  store ptr %87, ptr %10, align 8, !tbaa !157
  %88 = load ptr, ptr %10, align 8, !tbaa !157
  %89 = icmp ne ptr %88, null
  br i1 %89, label %91, label %90

90:                                               ; preds = %71
  store i32 -1, ptr %4, align 4
  store i32 1, ptr %11, align 4
  br label %111

91:                                               ; preds = %71
  %92 = load ptr, ptr %6, align 8, !tbaa !259
  call void @image_clear(ptr noundef %92)
  %93 = load ptr, ptr %6, align 8, !tbaa !259
  %94 = getelementptr inbounds nuw %struct.image, ptr %93, i32 0, i32 0
  %95 = load ptr, ptr %10, align 8, !tbaa !157
  %96 = load i64, ptr %9, align 8, !tbaa !87
  %97 = load i64, ptr %9, align 8, !tbaa !87
  %98 = add i64 %97, 1
  call void @strbuf_attach(ptr noundef %94, ptr noundef %95, i64 noundef %96, i64 noundef %98)
  store i32 0, ptr %4, align 4
  store i32 1, ptr %11, align 4
  br label %111

99:                                               ; preds = %67
  %100 = load ptr, ptr %6, align 8, !tbaa !259
  call void @image_clear(ptr noundef %100)
  %101 = load ptr, ptr %6, align 8, !tbaa !259
  %102 = getelementptr inbounds nuw %struct.image, ptr %101, i32 0, i32 0
  %103 = load ptr, ptr %8, align 8, !tbaa !69
  %104 = getelementptr inbounds nuw %struct.fragment, ptr %103, i32 0, i32 6
  %105 = load ptr, ptr %104, align 8, !tbaa !72
  %106 = load ptr, ptr %8, align 8, !tbaa !69
  %107 = getelementptr inbounds nuw %struct.fragment, ptr %106, i32 0, i32 8
  %108 = load i32, ptr %107, align 4, !tbaa !212
  %109 = sext i32 %108 to i64
  call void @strbuf_add(ptr noundef %102, ptr noundef %105, i64 noundef %109)
  store i32 0, ptr %4, align 4
  store i32 1, ptr %11, align 4
  br label %111

110:                                              ; preds = %67
  store i32 -1, ptr %4, align 4
  store i32 1, ptr %11, align 4
  br label %111

111:                                              ; preds = %110, %99, %91, %90, %59, %31
  call void @llvm.lifetime.end.p0(i64 8, ptr %10) #12
  call void @llvm.lifetime.end.p0(i64 8, ptr %9) #12
  call void @llvm.lifetime.end.p0(i64 8, ptr %8) #12
  %112 = load i32, ptr %4, align 4
  ret i32 %112
}