; Function Attrs: nounwind uwtable
define internal fastcc range(i32 -1, 1) i32 @apply_binary_fragment(ptr noundef readonly captures(none) %0, ptr noundef nonnull %1, ptr noundef nonnull readonly captures(none) %2) unnamed_addr #0 {
  %4 = alloca i64, align 8
  %5 = getelementptr inbounds nuw i8, ptr %2, i64 72
  %6 = load ptr, ptr %5, align 8, !tbaa !54
  call void @llvm.lifetime.start.p0(i64 8, ptr nonnull %4) #21
  %.not = icmp eq ptr %6, null
  br i1 %.not, label %7, label %18

7:                                                ; preds = %3
  %8 = load i32, ptr @git_gettext_enabled, align 4, !tbaa !34
  %.not4.i = icmp eq i32 %8, 0
  br i1 %.not4.i, label %_.exit, label %9

9:                                                ; preds = %7
  %10 = tail call ptr @dcgettext(ptr noundef null, ptr noundef nonnull @.str.211, i32 noundef 5) #21
  br label %_.exit

_.exit:                                           ; preds = %7, %9
  %.0.i = phi ptr [ %10, %9 ], [ @.str.211, %7 ]
  %11 = load ptr, ptr %2, align 8, !tbaa !65
  %.not30 = icmp eq ptr %11, null
  br i1 %.not30, label %12, label %15

12:                                               ; preds = %_.exit
  %13 = getelementptr inbounds nuw i8, ptr %2, i64 8
  %14 = load ptr, ptr %13, align 8, !tbaa !64
  br label %15

15:                                               ; preds = %_.exit, %12
  %16 = phi ptr [ %14, %12 ], [ %11, %_.exit ]
  %17 = tail call i32 (ptr, ...) @error(ptr noundef %.0.i, ptr noundef %16) #21
  br label %61

18:                                               ; preds = %3
  %19 = getelementptr inbounds nuw i8, ptr %0, i64 56
  %20 = load i32, ptr %19, align 8, !tbaa !127
  %.not31 = icmp eq i32 %20, 0
  br i1 %.not31, label %35, label %21

21:                                               ; preds = %18
  %22 = getelementptr inbounds nuw i8, ptr %6, i64 72
  %23 = load ptr, ptr %22, align 8, !tbaa !58
  %.not32 = icmp eq ptr %23, null
  br i1 %.not32, label %24, label %35

24:                                               ; preds = %21
  %25 = load i32, ptr @git_gettext_enabled, align 4, !tbaa !34
  %.not4.i35 = icmp eq i32 %25, 0
  br i1 %.not4.i35, label %_.exit37, label %26

26:                                               ; preds = %24
  %27 = tail call ptr @dcgettext(ptr noundef null, ptr noundef nonnull @.str.212, i32 noundef 5) #21
  br label %_.exit37

_.exit37:                                         ; preds = %24, %26
  %.0.i36 = phi ptr [ %27, %26 ], [ @.str.212, %24 ]
  %28 = load ptr, ptr %2, align 8, !tbaa !65
  %.not33 = icmp eq ptr %28, null
  br i1 %.not33, label %29, label %32

29:                                               ; preds = %_.exit37
  %30 = getelementptr inbounds nuw i8, ptr %2, i64 8
  %31 = load ptr, ptr %30, align 8, !tbaa !64
  br label %32

32:                                               ; preds = %_.exit37, %29
  %33 = phi ptr [ %31, %29 ], [ %28, %_.exit37 ]
  %34 = tail call i32 (ptr, ...) @error(ptr noundef %.0.i36, ptr noundef %33) #21
  br label %61

35:                                               ; preds = %21, %18
  %.024 = phi ptr [ %6, %18 ], [ %23, %21 ]
  %36 = load i64, ptr %.024, align 8, !tbaa !131
  switch i64 %36, label %61 [
    i64 1, label %37
    i64 2, label %53
  ]

37:                                               ; preds = %35
  %38 = getelementptr inbounds nuw i8, ptr %1, i64 16
  %39 = load ptr, ptr %38, align 8, !tbaa !175
  %40 = getelementptr inbounds nuw i8, ptr %1, i64 8
  %41 = load i64, ptr %40, align 8, !tbaa !176
  %42 = getelementptr inbounds nuw i8, ptr %.024, i64 48
  %43 = load ptr, ptr %42, align 8, !tbaa !60
  %44 = getelementptr inbounds nuw i8, ptr %.024, i64 60
  %45 = load i32, ptr %44, align 4, !tbaa !135
  %46 = sext i32 %45 to i64
  %47 = call ptr @patch_delta(ptr noundef %39, i64 noundef %41, ptr noundef %43, i64 noundef %46, ptr noundef nonnull %4) #21
  %.not34 = icmp eq ptr %47, null
  br i1 %.not34, label %61, label %48

48:                                               ; preds = %37
  call void @strbuf_release(ptr noundef nonnull %1) #21
  %49 = getelementptr inbounds nuw i8, ptr %1, i64 24
  %50 = load ptr, ptr %49, align 8, !tbaa !172
  call void @free(ptr noundef %50) #21
  call void @llvm.memcpy.p0.p0.i64(ptr noundef nonnull align 8 dereferenceable(48) %1, ptr noundef nonnull align 8 dereferenceable(48) @__const.image_init.empty, i64 48, i1 false)
  %51 = load i64, ptr %4, align 8, !tbaa !138
  %52 = add i64 %51, 1
  call void @strbuf_attach(ptr noundef nonnull %1, ptr noundef nonnull %47, i64 noundef %51, i64 noundef %52) #21
  br label %61

53:                                               ; preds = %35
  tail call void @strbuf_release(ptr noundef nonnull %1) #21
  %54 = getelementptr inbounds nuw i8, ptr %1, i64 24
  %55 = load ptr, ptr %54, align 8, !tbaa !172
  tail call void @free(ptr noundef %55) #21
  tail call void @llvm.memcpy.p0.p0.i64(ptr noundef nonnull align 8 dereferenceable(48) %1, ptr noundef nonnull align 8 dereferenceable(48) @__const.image_init.empty, i64 48, i1 false)
  %56 = getelementptr inbounds nuw i8, ptr %.024, i64 48
  %57 = load ptr, ptr %56, align 8, !tbaa !60
  %58 = getelementptr inbounds nuw i8, ptr %.024, i64 60
  %59 = load i32, ptr %58, align 4, !tbaa !135
  %60 = sext i32 %59 to i64
  tail call void @strbuf_add(ptr noundef nonnull %1, ptr noundef %57, i64 noundef %60) #21
  br label %61

61:                                               ; preds = %35, %37, %53, %48, %32, %15
  %.0 = phi i32 [ 0, %53 ], [ 0, %48 ], [ -1, %32 ], [ -1, %15 ], [ -1, %37 ], [ -1, %35 ]
  call void @llvm.lifetime.end.p0(i64 8, ptr nonnull %4) #21
  ret i32 %.0
}